	.file	"inherit_test.cpp"
	.text
	.section	.text._ZN5Base110base1_fun1Ev,"axG",@progbits,_ZN5Base110base1_fun1Ev,comdat
	.align 2
	.weak	_ZN5Base110base1_fun1Ev
	.type	_ZN5Base110base1_fun1Ev, @function
_ZN5Base110base1_fun1Ev:
.LFB0:
	.cfi_startproc
	endbr64
	pushq	%rbp
	.cfi_def_cfa_offset 16
	.cfi_offset 6, -16
	movq	%rsp, %rbp
	.cfi_def_cfa_register 6
	movq	%rdi, -8(%rbp)
	nop
	popq	%rbp
	.cfi_def_cfa 7, 8
	ret
	.cfi_endproc
.LFE0:
	.size	_ZN5Base110base1_fun1Ev, .-_ZN5Base110base1_fun1Ev
	.section	.text._ZN5Base110base1_fun2Ev,"axG",@progbits,_ZN5Base110base1_fun2Ev,comdat
	.align 2
	.weak	_ZN5Base110base1_fun2Ev
	.type	_ZN5Base110base1_fun2Ev, @function
_ZN5Base110base1_fun2Ev:
.LFB1:
	.cfi_startproc
	endbr64
	pushq	%rbp
	.cfi_def_cfa_offset 16
	.cfi_offset 6, -16
	movq	%rsp, %rbp
	.cfi_def_cfa_register 6
	movq	%rdi, -8(%rbp)
	nop
	popq	%rbp
	.cfi_def_cfa 7, 8
	ret
	.cfi_endproc
.LFE1:
	.size	_ZN5Base110base1_fun2Ev, .-_ZN5Base110base1_fun2Ev
	.section	.text._ZN5Base210base2_fun1Ev,"axG",@progbits,_ZN5Base210base2_fun1Ev,comdat
	.align 2
	.weak	_ZN5Base210base2_fun1Ev
	.type	_ZN5Base210base2_fun1Ev, @function
_ZN5Base210base2_fun1Ev:
.LFB2:
	.cfi_startproc
	endbr64
	pushq	%rbp
	.cfi_def_cfa_offset 16
	.cfi_offset 6, -16
	movq	%rsp, %rbp
	.cfi_def_cfa_register 6
	movq	%rdi, -8(%rbp)
	nop
	popq	%rbp
	.cfi_def_cfa 7, 8
	ret
	.cfi_endproc
.LFE2:
	.size	_ZN5Base210base2_fun1Ev, .-_ZN5Base210base2_fun1Ev
	.section	.text._ZN5Base210base2_fun2Ev,"axG",@progbits,_ZN5Base210base2_fun2Ev,comdat
	.align 2
	.weak	_ZN5Base210base2_fun2Ev
	.type	_ZN5Base210base2_fun2Ev, @function
_ZN5Base210base2_fun2Ev:
.LFB3:
	.cfi_startproc
	endbr64
	pushq	%rbp
	.cfi_def_cfa_offset 16
	.cfi_offset 6, -16
	movq	%rsp, %rbp
	.cfi_def_cfa_register 6
	movq	%rdi, -8(%rbp)
	nop
	popq	%rbp
	.cfi_def_cfa 7, 8
	ret
	.cfi_endproc
.LFE3:
	.size	_ZN5Base210base2_fun2Ev, .-_ZN5Base210base2_fun2Ev
	.section	.text._ZN7Derive110base1_fun1Ev,"axG",@progbits,_ZN7Derive110base1_fun1Ev,comdat
	.align 2
	.weak	_ZN7Derive110base1_fun1Ev
	.type	_ZN7Derive110base1_fun1Ev, @function
_ZN7Derive110base1_fun1Ev:
.LFB4:
	.cfi_startproc
	endbr64
	pushq	%rbp
	.cfi_def_cfa_offset 16
	.cfi_offset 6, -16
	movq	%rsp, %rbp
	.cfi_def_cfa_register 6
	movq	%rdi, -8(%rbp)
	nop
	popq	%rbp
	.cfi_def_cfa 7, 8
	ret
	.cfi_endproc
.LFE4:
	.size	_ZN7Derive110base1_fun1Ev, .-_ZN7Derive110base1_fun1Ev
	.section	.text._ZN7Derive110base2_fun2Ev,"axG",@progbits,_ZN7Derive110base2_fun2Ev,comdat
	.align 2
	.weak	_ZN7Derive110base2_fun2Ev
	.type	_ZN7Derive110base2_fun2Ev, @function
_ZN7Derive110base2_fun2Ev:
.LFB5:
	.cfi_startproc
	endbr64
	pushq	%rbp
	.cfi_def_cfa_offset 16
	.cfi_offset 6, -16
	movq	%rsp, %rbp
	.cfi_def_cfa_register 6
	movq	%rdi, -8(%rbp)
	nop
	popq	%rbp
	.cfi_def_cfa 7, 8
	ret
	.cfi_endproc
.LFE5:
	.size	_ZN7Derive110base2_fun2Ev, .-_ZN7Derive110base2_fun2Ev
	.set	.LTHUNK0,_ZN7Derive110base2_fun2Ev
	.weak	_ZThn16_N7Derive110base2_fun2Ev
	.type	_ZThn16_N7Derive110base2_fun2Ev, @function
_ZThn16_N7Derive110base2_fun2Ev:
.LFB18:
	.cfi_startproc
	endbr64
	subq	$16, %rdi
	jmp	.LTHUNK0
	.cfi_endproc
.LFE18:
	.size	_ZThn16_N7Derive110base2_fun2Ev, .-_ZThn16_N7Derive110base2_fun2Ev
	.section	.text._ZN7Derive112derive1_fun1Ev,"axG",@progbits,_ZN7Derive112derive1_fun1Ev,comdat
	.align 2
	.weak	_ZN7Derive112derive1_fun1Ev
	.type	_ZN7Derive112derive1_fun1Ev, @function
_ZN7Derive112derive1_fun1Ev:
.LFB6:
	.cfi_startproc
	endbr64
	pushq	%rbp
	.cfi_def_cfa_offset 16
	.cfi_offset 6, -16
	movq	%rsp, %rbp
	.cfi_def_cfa_register 6
	movq	%rdi, -8(%rbp)
	nop
	popq	%rbp
	.cfi_def_cfa 7, 8
	ret
	.cfi_endproc
.LFE6:
	.size	_ZN7Derive112derive1_fun1Ev, .-_ZN7Derive112derive1_fun1Ev
	.section	.text._ZN7Derive112derive1_fun2Ev,"axG",@progbits,_ZN7Derive112derive1_fun2Ev,comdat
	.align 2
	.weak	_ZN7Derive112derive1_fun2Ev
	.type	_ZN7Derive112derive1_fun2Ev, @function
_ZN7Derive112derive1_fun2Ev:
.LFB7:
	.cfi_startproc
	endbr64
	pushq	%rbp
	.cfi_def_cfa_offset 16
	.cfi_offset 6, -16
	movq	%rsp, %rbp
	.cfi_def_cfa_register 6
	movq	%rdi, -8(%rbp)
	nop
	popq	%rbp
	.cfi_def_cfa 7, 8
	ret
	.cfi_endproc
.LFE7:
	.size	_ZN7Derive112derive1_fun2Ev, .-_ZN7Derive112derive1_fun2Ev
	.section	.text._ZN5Base1C2Ev,"axG",@progbits,_ZN5Base1C5Ev,comdat
	.align 2
	.weak	_ZN5Base1C2Ev
	.type	_ZN5Base1C2Ev, @function
_ZN5Base1C2Ev:
.LFB11:
	.cfi_startproc
	endbr64
	pushq	%rbp
	.cfi_def_cfa_offset 16
	.cfi_offset 6, -16
	movq	%rsp, %rbp
	.cfi_def_cfa_register 6
	movq	%rdi, -8(%rbp)
	leaq	16+_ZTV5Base1(%rip), %rdx
	movq	-8(%rbp), %rax
	movq	%rdx, (%rax)
	nop
	popq	%rbp
	.cfi_def_cfa 7, 8
	ret
	.cfi_endproc
.LFE11:
	.size	_ZN5Base1C2Ev, .-_ZN5Base1C2Ev
	.weak	_ZN5Base1C1Ev
	.set	_ZN5Base1C1Ev,_ZN5Base1C2Ev
	.section	.text._ZN5Base2C2Ev,"axG",@progbits,_ZN5Base2C5Ev,comdat
	.align 2
	.weak	_ZN5Base2C2Ev
	.type	_ZN5Base2C2Ev, @function
_ZN5Base2C2Ev:
.LFB14:
	.cfi_startproc
	endbr64
	pushq	%rbp
	.cfi_def_cfa_offset 16
	.cfi_offset 6, -16
	movq	%rsp, %rbp
	.cfi_def_cfa_register 6
	movq	%rdi, -8(%rbp)
	leaq	16+_ZTV5Base2(%rip), %rdx
	movq	-8(%rbp), %rax
	movq	%rdx, (%rax)
	nop
	popq	%rbp
	.cfi_def_cfa 7, 8
	ret
	.cfi_endproc
.LFE14:
	.size	_ZN5Base2C2Ev, .-_ZN5Base2C2Ev
	.weak	_ZN5Base2C1Ev
	.set	_ZN5Base2C1Ev,_ZN5Base2C2Ev
	.section	.text._ZN7Derive1C2Ev,"axG",@progbits,_ZN7Derive1C5Ev,comdat
	.align 2
	.weak	_ZN7Derive1C2Ev
	.type	_ZN7Derive1C2Ev, @function
_ZN7Derive1C2Ev:
.LFB16:
	.cfi_startproc
	endbr64
	pushq	%rbp
	.cfi_def_cfa_offset 16
	.cfi_offset 6, -16
	movq	%rsp, %rbp
	.cfi_def_cfa_register 6
	subq	$16, %rsp
	movq	%rdi, -8(%rbp)
	movq	-8(%rbp), %rax
	movq	%rax, %rdi
	call	_ZN5Base1C2Ev
	movq	-8(%rbp), %rax
	addq	$16, %rax
	movq	%rax, %rdi
	call	_ZN5Base2C2Ev
	leaq	16+_ZTV7Derive1(%rip), %rdx
	movq	-8(%rbp), %rax
	movq	%rdx, (%rax)
	leaq	72+_ZTV7Derive1(%rip), %rdx
	movq	-8(%rbp), %rax
	movq	%rdx, 16(%rax)
	nop
	leave
	.cfi_def_cfa 7, 8
	ret
	.cfi_endproc
.LFE16:
	.size	_ZN7Derive1C2Ev, .-_ZN7Derive1C2Ev
	.weak	_ZN7Derive1C1Ev
	.set	_ZN7Derive1C1Ev,_ZN7Derive1C2Ev
	.text
	.globl	main
	.type	main, @function
main:
.LFB8:
	.cfi_startproc
	endbr64
	pushq	%rbp
	.cfi_def_cfa_offset 16
	.cfi_offset 6, -16
	movq	%rsp, %rbp
	.cfi_def_cfa_register 6
	pushq	%rbx
	subq	$24, %rsp
	.cfi_offset 3, -24
	movl	$40, %edi
	call	_Znwm@PLT
	movq	%rax, %rbx
	movq	$0, (%rbx)
	movq	$0, 8(%rbx)
	movq	$0, 16(%rbx)
	movq	$0, 24(%rbx)
	movq	$0, 32(%rbx)
	movq	%rbx, %rdi
	call	_ZN7Derive1C1Ev
	movq	%rbx, -24(%rbp)
	movq	-24(%rbp), %rax
	leaq	16(%rax), %rdx
	movq	-24(%rbp), %rax
	movq	16(%rax), %rax
	movq	(%rax), %rax
	movq	%rdx, %rdi
	call	*%rax
	movl	$0, %eax
	addq	$24, %rsp
	popq	%rbx
	popq	%rbp
	.cfi_def_cfa 7, 8
	ret
	.cfi_endproc
.LFE8:
	.size	main, .-main
	.weak	_ZTV7Derive1
	.section	.data.rel.ro.local._ZTV7Derive1,"awG",@progbits,_ZTV7Derive1,comdat
	.align 8
	.type	_ZTV7Derive1, @object
	.size	_ZTV7Derive1, 88
_ZTV7Derive1:
	.quad	0
	.quad	_ZTI7Derive1
	.quad	_ZN7Derive110base1_fun1Ev
	.quad	_ZN5Base110base1_fun2Ev
	.quad	_ZN7Derive110base2_fun2Ev
	.quad	_ZN7Derive112derive1_fun1Ev
	.quad	_ZN7Derive112derive1_fun2Ev
	.quad	-16
	.quad	_ZTI7Derive1
	.quad	_ZN5Base210base2_fun1Ev
	.quad	_ZThn16_N7Derive110base2_fun2Ev
	.weak	_ZTV5Base2
	.section	.data.rel.ro.local._ZTV5Base2,"awG",@progbits,_ZTV5Base2,comdat
	.align 8
	.type	_ZTV5Base2, @object
	.size	_ZTV5Base2, 32
_ZTV5Base2:
	.quad	0
	.quad	_ZTI5Base2
	.quad	_ZN5Base210base2_fun1Ev
	.quad	_ZN5Base210base2_fun2Ev
	.weak	_ZTV5Base1
	.section	.data.rel.ro.local._ZTV5Base1,"awG",@progbits,_ZTV5Base1,comdat
	.align 8
	.type	_ZTV5Base1, @object
	.size	_ZTV5Base1, 32
_ZTV5Base1:
	.quad	0
	.quad	_ZTI5Base1
	.quad	_ZN5Base110base1_fun1Ev
	.quad	_ZN5Base110base1_fun2Ev
	.weak	_ZTI7Derive1
	.section	.data.rel.ro._ZTI7Derive1,"awG",@progbits,_ZTI7Derive1,comdat
	.align 8
	.type	_ZTI7Derive1, @object
	.size	_ZTI7Derive1, 56
_ZTI7Derive1:
	.quad	_ZTVN10__cxxabiv121__vmi_class_type_infoE+16
	.quad	_ZTS7Derive1
	.long	0
	.long	2
	.quad	_ZTI5Base1
	.quad	2
	.quad	_ZTI5Base2
	.quad	4098
	.weak	_ZTS7Derive1
	.section	.rodata._ZTS7Derive1,"aG",@progbits,_ZTS7Derive1,comdat
	.align 8
	.type	_ZTS7Derive1, @object
	.size	_ZTS7Derive1, 9
_ZTS7Derive1:
	.string	"7Derive1"
	.weak	_ZTI5Base2
	.section	.data.rel.ro._ZTI5Base2,"awG",@progbits,_ZTI5Base2,comdat
	.align 8
	.type	_ZTI5Base2, @object
	.size	_ZTI5Base2, 16
_ZTI5Base2:
	.quad	_ZTVN10__cxxabiv117__class_type_infoE+16
	.quad	_ZTS5Base2
	.weak	_ZTS5Base2
	.section	.rodata._ZTS5Base2,"aG",@progbits,_ZTS5Base2,comdat
	.type	_ZTS5Base2, @object
	.size	_ZTS5Base2, 7
_ZTS5Base2:
	.string	"5Base2"
	.weak	_ZTI5Base1
	.section	.data.rel.ro._ZTI5Base1,"awG",@progbits,_ZTI5Base1,comdat
	.align 8
	.type	_ZTI5Base1, @object
	.size	_ZTI5Base1, 16
_ZTI5Base1:
	.quad	_ZTVN10__cxxabiv117__class_type_infoE+16
	.quad	_ZTS5Base1
	.weak	_ZTS5Base1
	.section	.rodata._ZTS5Base1,"aG",@progbits,_ZTS5Base1,comdat
	.type	_ZTS5Base1, @object
	.size	_ZTS5Base1, 7
_ZTS5Base1:
	.string	"5Base1"
	.ident	"GCC: (Ubuntu 9.3.0-17ubuntu1~20.04) 9.3.0"
	.section	.note.GNU-stack,"",@progbits
	.section	.note.gnu.property,"a"
	.align 8
	.long	 1f - 0f
	.long	 4f - 1f
	.long	 5
0:
	.string	 "GNU"
1:
	.align 8
	.long	 0xc0000002
	.long	 3f - 2f
2:
	.long	 0x3
3:
	.align 8
4:
